target datalayout = "e-m:e-p270:32:32-p271:32:32-p272:64:64-i64:64-i128:128-f80:128-n8:16:32:64-S128"
target triple = "x86_64-unknown-linux-gnu"

%"class.QuantLib::Date" = type { i64 }

; Function Attrs: mustprogress nounwind uwtable
define noundef i64 @_ZN8QuantLib4Date10yearOffsetEi(i32 noundef %y) #4 align 2 {
entry:
  %y.addr = alloca i32, align 4
  store i32 %y, ptr %y.addr, align 4, !tbaa !11
  %0 = load i32, ptr %y.addr, align 4, !tbaa !11
  %sub = sub nsw i32 %0, 1900
  %idxprom = sext i32 %sub to i64
  %arrayidx = getelementptr inbounds [301 x i64], ptr @_ZZN8QuantLib4Date10yearOffsetEiE10YearOffset, i64 0, i64 %idxprom
  %1 = load i64, ptr %arrayidx, align 8, !tbaa !10
  ret i64 %1
}

; Function Attrs: mustprogress uwtable
define noundef i32 @_ZNK8QuantLib4Date4yearEv(ptr noundef nonnull align 8 dereferenceable(8) %this) #5 align 2 {
entry:
  %this.addr = alloca ptr, align 8
  %y = alloca i32, align 4
  store ptr %this, ptr %this.addr, align 8, !tbaa !3
  %this1 = load ptr, ptr %this.addr, align 8
  call void @llvm.lifetime.start.p0(i64 4, ptr %y) #3
  %serialNumber_ = getelementptr inbounds nuw %"class.QuantLib::Date", ptr %this1, i32 0, i32 0
  %0 = load i64, ptr %serialNumber_, align 8, !tbaa !7
  %div = sdiv i64 %0, 365
  %add = add nsw i64 %div, 1900
  %conv = trunc i64 %add to i32
  store i32 %conv, ptr %y, align 4, !tbaa !11
  %serialNumber_2 = getelementptr inbounds nuw %"class.QuantLib::Date", ptr %this1, i32 0, i32 0
  %1 = load i64, ptr %serialNumber_2, align 8, !tbaa !7
  %2 = load i32, ptr %y, align 4, !tbaa !11
  %call = call noundef i64 @_ZN8QuantLib4Date10yearOffsetEi(i32 noundef %2)
  %cmp = icmp sle i64 %1, %call
  br i1 %cmp, label %if.then, label %if.end

if.then:                                          ; preds = %entry
  %3 = load i32, ptr %y, align 4, !tbaa !11
  %dec = add nsw i32 %3, -1
  store i32 %dec, ptr %y, align 4, !tbaa !11
  br label %if.end

if.end:                                           ; preds = %if.then, %entry
  %4 = load i32, ptr %y, align 4, !tbaa !11
  call void @llvm.lifetime.end.p0(i64 4, ptr %y) #3
  ret i32 %4
}