; Function Attrs: mustprogress nofree norecurse nosync nounwind willreturn memory(argmem: read) uwtable
define noundef i32 @_ZNK8QuantLib4Date4yearEv(ptr nocapture noundef nonnull readonly align 8 dereferenceable(8) %this) local_unnamed_addr #10 align 2 {
entry:
  %0 = load i64, ptr %this, align 8, !tbaa !3
  %div = sdiv i64 %0, 365
  %1 = trunc i64 %div to i32
  %sext = shl i64 %div, 32
  %idxprom.i = ashr exact i64 %sext, 32
  %arrayidx.i = getelementptr inbounds [301 x i64], ptr @_ZZN8QuantLib4Date10yearOffsetEiE10YearOffset, i64 0, i64 %idxprom.i
  %2 = load i64, ptr %arrayidx.i, align 8, !tbaa !16
  %cmp.not = icmp sgt i64 %0, %2
  %spec.select.v = select i1 %cmp.not, i32 1900, i32 1899
  %spec.select = add i32 %spec.select.v, %1
  ret i32 %spec.select
}